; Function Attrs: nounwind uwtable
define range(i32 -171, 1) i32 @PMIx_Register_attributes(ptr noundef readonly captures(none) %0, ptr noundef %1) local_unnamed_addr #0 {
  %3 = tail call i32 @pthread_mutex_lock(ptr noundef nonnull getelementptr inbounds nuw (i8, ptr @pmix_global_lock, i64 128)) #18
  %4 = load volatile i8, ptr getelementptr inbounds nuw (i8, ptr @pmix_global_lock, i64 216), align 8, !tbaa !51, !range !54, !noundef !55
  %5 = trunc nuw i8 %4 to i1
  br i1 %5, label %.lr.ph, label %._crit_edge

.lr.ph:                                           ; preds = %2, %.lr.ph
  %6 = tail call i32 @pthread_cond_wait(ptr noundef nonnull getelementptr inbounds nuw (i8, ptr @pmix_global_lock, i64 168), ptr noundef nonnull getelementptr inbounds nuw (i8, ptr @pmix_global_lock, i64 128)) #18
  %7 = load volatile i8, ptr getelementptr inbounds nuw (i8, ptr @pmix_global_lock, i64 216), align 8, !tbaa !51, !range !54, !noundef !55
  %8 = trunc nuw i8 %7 to i1
  br i1 %8, label %.lr.ph, label %._crit_edge, !llvm.loop !56

._crit_edge:                                      ; preds = %.lr.ph, %2
  fence acquire
  store volatile i8 1, ptr getelementptr inbounds nuw (i8, ptr @pmix_global_lock, i64 216), align 8, !tbaa !51
  %9 = load i32, ptr @pmix_globals, align 8, !tbaa !57
  %10 = icmp slt i32 %9, 1
  br i1 %10, label %13, label %11

11:                                               ; preds = %._crit_edge
  %12 = tail call fastcc i32 @process_reg(ptr noundef nonnull @.str, ptr noundef %0, ptr noundef %1)
  br label %13

13:                                               ; preds = %._crit_edge, %11
  %.0 = phi i32 [ %12, %11 ], [ -31, %._crit_edge ]
  store volatile i8 0, ptr getelementptr inbounds nuw (i8, ptr @pmix_global_lock, i64 216), align 8, !tbaa !51
  fence release
  %14 = tail call i32 @pthread_cond_broadcast(ptr noundef nonnull getelementptr inbounds nuw (i8, ptr @pmix_global_lock, i64 168)) #18
  %15 = tail call i32 @pthread_mutex_unlock(ptr noundef nonnull getelementptr inbounds nuw (i8, ptr @pmix_global_lock, i64 128)) #18
  ret i32 %.0
}